; Function Attrs: nofree nounwind uwtable
define noalias noundef ptr @Abc_NtkFinComputeTypes(ptr noundef readonly captures(none) %0) local_unnamed_addr #14 {
  %2 = getelementptr i8, ptr %0, i64 32
  %.val16 = load ptr, ptr %2, align 8, !tbaa !24
  %3 = getelementptr i8, ptr %.val16, i64 4
  %.val16.val = load i32, ptr %3, align 4, !tbaa !25
  %4 = tail call noalias dereferenceable_or_null(16) ptr @malloc(i64 noundef 16) #34
  %5 = add i32 %.val16.val, -1
  %or.cond.i.i = icmp ult i32 %5, 15
  %spec.store.select.i.i = select i1 %or.cond.i.i, i32 16, i32 %.val16.val
  %6 = getelementptr inbounds nuw i8, ptr %4, i64 4
  store i32 %spec.store.select.i.i, ptr %4, align 8, !tbaa !35
  %.not.i.i = icmp eq i32 %spec.store.select.i.i, 0
  br i1 %.not.i.i, label %Vec_IntAlloc.exit.thread.i, label %Vec_IntAlloc.exit.i

Vec_IntAlloc.exit.thread.i:                       ; preds = %1
  %7 = getelementptr inbounds nuw i8, ptr %4, i64 8
  store ptr null, ptr %7, align 8, !tbaa !36
  store i32 %.val16.val, ptr %6, align 4, !tbaa !37
  br label %Vec_IntStart.exit

Vec_IntAlloc.exit.i:                              ; preds = %1
  %8 = sext i32 %spec.store.select.i.i to i64
  %9 = shl nsw i64 %8, 2
  %10 = tail call noalias ptr @malloc(i64 noundef %9) #34
  %11 = getelementptr inbounds nuw i8, ptr %4, i64 8
  store ptr %10, ptr %11, align 8, !tbaa !36
  store i32 %.val16.val, ptr %6, align 4, !tbaa !37
  %.not.i = icmp eq ptr %10, null
  br i1 %.not.i, label %Vec_IntStart.exit, label %12

12:                                               ; preds = %Vec_IntAlloc.exit.i
  %13 = sext i32 %.val16.val to i64
  %14 = shl nsw i64 %13, 2
  tail call void @llvm.memset.p0.i64(ptr nonnull align 4 %10, i8 0, i64 %14, i1 false)
  br label %Vec_IntStart.exit

Vec_IntStart.exit:                                ; preds = %Vec_IntAlloc.exit.thread.i, %Vec_IntAlloc.exit.i, %12
  %.val15 = phi ptr [ null, %Vec_IntAlloc.exit.thread.i ], [ null, %Vec_IntAlloc.exit.i ], [ %10, %12 ]
  %15 = icmp sgt i32 %.val16.val, 0
  br i1 %15, label %.lr.ph, label %.critedge

.lr.ph:                                           ; preds = %Vec_IntStart.exit
  %16 = getelementptr i8, ptr %.val16, i64 8
  %.val12.val = load ptr, ptr %16, align 8, !tbaa !27
  %17 = zext nneg i32 %.val16.val to i64
  br label %18

18:                                               ; preds = %.lr.ph, %31
  %indvars.iv = phi i64 [ 0, %.lr.ph ], [ %indvars.iv.next, %31 ]
  %19 = getelementptr inbounds nuw ptr, ptr %.val12.val, i64 %indvars.iv
  %20 = load ptr, ptr %19, align 8, !tbaa !28
  %21 = icmp eq ptr %20, null
  br i1 %21, label %31, label %22

22:                                               ; preds = %18
  %23 = getelementptr i8, ptr %20, i64 20
  %.val13 = load i32, ptr %23, align 4
  %24 = and i32 %.val13, 15
  %.not = icmp eq i32 %24, 7
  br i1 %.not, label %25, label %31

25:                                               ; preds = %22
  %26 = getelementptr i8, ptr %20, i64 16
  %.val14 = load i32, ptr %26, align 8, !tbaa !38
  %27 = getelementptr i8, ptr %20, i64 56
  %.val17 = load ptr, ptr %27, align 8, !tbaa !29
  %28 = tail call fastcc i32 @Abc_ObjFinGateType(ptr %.val17)
  %29 = sext i32 %.val14 to i64
  %30 = getelementptr inbounds i32, ptr %.val15, i64 %29
  store i32 %28, ptr %30, align 4, !tbaa !34
  br label %31

31:                                               ; preds = %25, %22, %18
  %indvars.iv.next = add nuw nsw i64 %indvars.iv, 1
  %32 = icmp samesign ult i64 %indvars.iv.next, %17
  br i1 %32, label %18, label %.critedge, !llvm.loop !188

.critedge:                                        ; preds = %31, %Vec_IntStart.exit
  ret ptr %4
}